; Function Attrs: mustprogress nounwind uwtable
define internal { ptr, ptr } @_ZN12_GLOBAL__N_19CGObjCGNU27EnumerationMutationFunctionEv(ptr noundef nonnull align 8 captures(none) dereferenceable(1184) %0) unnamed_addr #0 align 2 {
  %2 = getelementptr inbounds nuw i8, ptr %0, i64 944
  %3 = getelementptr inbounds nuw i8, ptr %0, i64 968
  %4 = getelementptr inbounds nuw i8, ptr %0, i64 976
  %5 = load ptr, ptr %4, align 8
  %.not3.i = icmp eq ptr %5, null
  br i1 %.not3.i, label %6, label %._crit_edge.i

._crit_edge.i:                                    ; preds = %1
  %.sroa.02.0.copyload.pre.i = load ptr, ptr %3, align 8
  br label %_ZN12_GLOBAL__N_119LazyRuntimeFunctioncvN4llvm14FunctionCalleeEEv.exit

6:                                                ; preds = %1
  %7 = getelementptr inbounds nuw i8, ptr %0, i64 960
  %8 = load ptr, ptr %7, align 8
  %.not.i = icmp eq ptr %8, null
  br i1 %.not.i, label %_ZN12_GLOBAL__N_119LazyRuntimeFunctioncvN4llvm14FunctionCalleeEEv.exit, label %_ZN4llvm9StringRefC2EPKc.exit.i

_ZN4llvm9StringRefC2EPKc.exit.i:                  ; preds = %6
  %9 = load ptr, ptr %2, align 8
  %10 = getelementptr inbounds nuw i8, ptr %0, i64 952
  %11 = load ptr, ptr %10, align 8
  %12 = tail call noundef i64 @strlen(ptr noundef nonnull dereferenceable(1) %8) #23
  %13 = tail call { ptr, ptr } @_ZN5clang7CodeGen13CodeGenModule21CreateRuntimeFunctionEPN4llvm12FunctionTypeENS2_9StringRefENS2_13AttributeListEbb(ptr noundef nonnull align 8 dereferenceable(3600) %9, ptr noundef %11, ptr nonnull %8, i64 %12, ptr null, i1 noundef zeroext false, i1 noundef zeroext false) #23
  %14 = extractvalue { ptr, ptr } %13, 0
  %15 = extractvalue { ptr, ptr } %13, 1
  store ptr %14, ptr %3, align 8
  store ptr %15, ptr %4, align 8
  br label %_ZN12_GLOBAL__N_119LazyRuntimeFunctioncvN4llvm14FunctionCalleeEEv.exit

_ZN12_GLOBAL__N_119LazyRuntimeFunctioncvN4llvm14FunctionCalleeEEv.exit: ; preds = %._crit_edge.i, %6, %_ZN4llvm9StringRefC2EPKc.exit.i
  %.sroa.3.0.i = phi ptr [ null, %6 ], [ %5, %._crit_edge.i ], [ %15, %_ZN4llvm9StringRefC2EPKc.exit.i ]
  %.sroa.02.0.i = phi ptr [ null, %6 ], [ %.sroa.02.0.copyload.pre.i, %._crit_edge.i ], [ %14, %_ZN4llvm9StringRefC2EPKc.exit.i ]
  %.fca.0.insert.i = insertvalue { ptr, ptr } poison, ptr %.sroa.02.0.i, 0
  %.fca.1.insert.i = insertvalue { ptr, ptr } %.fca.0.insert.i, ptr %.sroa.3.0.i, 1
  ret { ptr, ptr } %.fca.1.insert.i
}